target datalayout = "e-m:e-p270:32:32-p271:32:32-p272:64:64-i64:64-i128:128-f80:128-n8:16:32:64-S128"
target triple = "x86_64-pc-linux-gnu"

%struct.AVRational = type { i32, i32 }
%struct.AVCodecContext = type { ptr, i32, i32, ptr, i32, i32, ptr, ptr, ptr, i64, i32, i32, ptr, i32, %struct.AVRational, %struct.AVRational, %struct.AVRational, i32, i32, i32, i32, i32, %struct.AVRational, i32, i32, i32, i32, i32, i32, i32, i32, i32, i32, i32, ptr, ptr, i32, float, float, float, float, float, float, float, float, float, i32, i32, i32, i32, i32, i32, i32, i32, i32, i32, i32, i32, ptr, ptr, ptr, i32, i32, i32, i32, i32, i32, i32, i32, i32, i32, %struct.AVChannelLayout, i32, i32, i32, i32, i32, i32, i32, i32, ptr, i32, i32, i32, float, float, i32, i32, i32, i32, i32, ptr, i64, i64, float, float, i32, i32, ptr, ptr, i32, i32, i32, i32, i32, ptr, ptr, ptr, ptr, i32, i32, [8 x i64], i32, i32, i32, i32, i32, i32, i32, ptr, ptr, i32, i32, i32, i32, i32, i32, i32, i32, i32, i32, ptr, ptr, i32, i32, ptr, ptr, ptr, ptr, i32, i32, i64, i32, i32, i64, ptr, i64, ptr, i32, ptr, i32 }
%struct.AVChannelLayout = type { i32, i32, %union.anon, ptr }
%union.anon = type { i64 }
%struct.AVCodec = type { ptr, ptr, i32, i32, i32, i8, ptr, ptr, ptr, ptr, ptr, ptr, ptr, ptr }
%struct.AVFrame = type { [8 x ptr], [8 x i32], ptr, i32, i32, i32, i32, i32, %struct.AVRational, i64, i64, %struct.AVRational, i32, ptr, i32, i32, [8 x ptr], ptr, i32, ptr, i32, i32, i32, i32, i32, i32, i32, i64, ptr, i32, ptr, ptr, i64, i64, i64, i64, ptr, %struct.AVChannelLayout, i64 }

@.str.18 = private unnamed_addr constant [21 x i8] c"get_buffer() failed\0A\00", align 1

; Function Attrs: nounwind uwtable
define i32 @ff_encode_alloc_frame(ptr noundef %0, ptr noundef %1) #0 {
  %3 = alloca i32, align 4
  %4 = alloca ptr, align 8
  %5 = alloca ptr, align 8
  %6 = alloca i32, align 4
  %7 = alloca i32, align 4
  store ptr %0, ptr %4, align 8, !tbaa !4
  store ptr %1, ptr %5, align 8, !tbaa !58
  call void @llvm.lifetime.start.p0(i64 4, ptr %6) #10
  %8 = load ptr, ptr %4, align 8, !tbaa !4
  %9 = getelementptr inbounds nuw %struct.AVCodecContext, ptr %8, i32 0, i32 3
  %10 = load ptr, ptr %9, align 8, !tbaa !54
  %11 = getelementptr inbounds nuw %struct.AVCodec, ptr %10, i32 0, i32 2
  %12 = load i32, ptr %11, align 8, !tbaa !83
  switch i32 %12, label %96 [
    i32 0, label %13
    i32 1, label %68
  ]

13:                                               ; preds = %2
  %14 = load ptr, ptr %4, align 8, !tbaa !4
  %15 = getelementptr inbounds nuw %struct.AVCodecContext, ptr %14, i32 0, i32 23
  %16 = load i32, ptr %15, align 8, !tbaa !133
  %17 = load ptr, ptr %5, align 8, !tbaa !58
  %18 = getelementptr inbounds nuw %struct.AVFrame, ptr %17, i32 0, i32 6
  store i32 %16, ptr %18, align 4, !tbaa !165
  %19 = load ptr, ptr %5, align 8, !tbaa !58
  %20 = getelementptr inbounds nuw %struct.AVFrame, ptr %19, i32 0, i32 3
  %21 = load i32, ptr %20, align 8, !tbaa !166
  %22 = icmp sle i32 %21, 0
  br i1 %22, label %28, label %23

23:                                               ; preds = %13
  %24 = load ptr, ptr %5, align 8, !tbaa !58
  %25 = getelementptr inbounds nuw %struct.AVFrame, ptr %24, i32 0, i32 4
  %26 = load i32, ptr %25, align 4, !tbaa !167
  %27 = icmp sle i32 %26, 0
  br i1 %27, label %28, label %67

28:                                               ; preds = %23, %13
  %29 = load ptr, ptr %4, align 8, !tbaa !4
  %30 = getelementptr inbounds nuw %struct.AVCodecContext, ptr %29, i32 0, i32 18
  %31 = load i32, ptr %30, align 8, !tbaa !108
  %32 = load ptr, ptr %4, align 8, !tbaa !4
  %33 = getelementptr inbounds nuw %struct.AVCodecContext, ptr %32, i32 0, i32 20
  %34 = load i32, ptr %33, align 8, !tbaa !168
  %35 = icmp sgt i32 %31, %34
  br i1 %35, label %36, label %40

36:                                               ; preds = %28
  %37 = load ptr, ptr %4, align 8, !tbaa !4
  %38 = getelementptr inbounds nuw %struct.AVCodecContext, ptr %37, i32 0, i32 18
  %39 = load i32, ptr %38, align 8, !tbaa !108
  br label %44

40:                                               ; preds = %28
  %41 = load ptr, ptr %4, align 8, !tbaa !4
  %42 = getelementptr inbounds nuw %struct.AVCodecContext, ptr %41, i32 0, i32 20
  %43 = load i32, ptr %42, align 8, !tbaa !168
  br label %44

44:                                               ; preds = %40, %36
  %45 = phi i32 [ %39, %36 ], [ %43, %40 ]
  %46 = load ptr, ptr %5, align 8, !tbaa !58
  %47 = getelementptr inbounds nuw %struct.AVFrame, ptr %46, i32 0, i32 3
  store i32 %45, ptr %47, align 8, !tbaa !166
  %48 = load ptr, ptr %4, align 8, !tbaa !4
  %49 = getelementptr inbounds nuw %struct.AVCodecContext, ptr %48, i32 0, i32 19
  %50 = load i32, ptr %49, align 4, !tbaa !109
  %51 = load ptr, ptr %4, align 8, !tbaa !4
  %52 = getelementptr inbounds nuw %struct.AVCodecContext, ptr %51, i32 0, i32 21
  %53 = load i32, ptr %52, align 4, !tbaa !169
  %54 = icmp sgt i32 %50, %53
  br i1 %54, label %55, label %59

55:                                               ; preds = %44
  %56 = load ptr, ptr %4, align 8, !tbaa !4
  %57 = getelementptr inbounds nuw %struct.AVCodecContext, ptr %56, i32 0, i32 19
  %58 = load i32, ptr %57, align 4, !tbaa !109
  br label %63

59:                                               ; preds = %44
  %60 = load ptr, ptr %4, align 8, !tbaa !4
  %61 = getelementptr inbounds nuw %struct.AVCodecContext, ptr %60, i32 0, i32 21
  %62 = load i32, ptr %61, align 4, !tbaa !169
  br label %63

63:                                               ; preds = %59, %55
  %64 = phi i32 [ %58, %55 ], [ %62, %59 ]
  %65 = load ptr, ptr %5, align 8, !tbaa !58
  %66 = getelementptr inbounds nuw %struct.AVFrame, ptr %65, i32 0, i32 4
  store i32 %64, ptr %66, align 4, !tbaa !167
  br label %67

67:                                               ; preds = %63, %23
  br label %96

68:                                               ; preds = %2
  %69 = load ptr, ptr %4, align 8, !tbaa !4
  %70 = getelementptr inbounds nuw %struct.AVCodecContext, ptr %69, i32 0, i32 69
  %71 = load i32, ptr %70, align 8, !tbaa !90
  %72 = load ptr, ptr %5, align 8, !tbaa !58
  %73 = getelementptr inbounds nuw %struct.AVFrame, ptr %72, i32 0, i32 15
  store i32 %71, ptr %73, align 4, !tbaa !170
  %74 = load ptr, ptr %4, align 8, !tbaa !4
  %75 = getelementptr inbounds nuw %struct.AVCodecContext, ptr %74, i32 0, i32 70
  %76 = load i32, ptr %75, align 4, !tbaa !153
  %77 = load ptr, ptr %5, align 8, !tbaa !58
  %78 = getelementptr inbounds nuw %struct.AVFrame, ptr %77, i32 0, i32 6
  store i32 %76, ptr %78, align 4, !tbaa !165
  %79 = load ptr, ptr %5, align 8, !tbaa !58
  %80 = getelementptr inbounds nuw %struct.AVFrame, ptr %79, i32 0, i32 37
  %81 = getelementptr inbounds nuw %struct.AVChannelLayout, ptr %80, i32 0, i32 1
  %82 = load i32, ptr %81, align 4, !tbaa !171
  %83 = icmp ne i32 %82, 0
  br i1 %83, label %95, label %84

84:                                               ; preds = %68
  %85 = load ptr, ptr %5, align 8, !tbaa !58
  %86 = getelementptr inbounds nuw %struct.AVFrame, ptr %85, i32 0, i32 37
  %87 = load ptr, ptr %4, align 8, !tbaa !4
  %88 = getelementptr inbounds nuw %struct.AVCodecContext, ptr %87, i32 0, i32 71
  %89 = call i32 @av_channel_layout_copy(ptr noundef %86, ptr noundef %88)
  store i32 %89, ptr %6, align 4, !tbaa !41
  %90 = load i32, ptr %6, align 4, !tbaa !41
  %91 = icmp slt i32 %90, 0
  br i1 %91, label %92, label %94

92:                                               ; preds = %84
  %93 = load i32, ptr %6, align 4, !tbaa !41
  store i32 %93, ptr %3, align 4
  store i32 1, ptr %7, align 4
  br label %107

94:                                               ; preds = %84
  br label %95

95:                                               ; preds = %94, %68
  br label %96

96:                                               ; preds = %2, %95, %67
  %97 = load ptr, ptr %4, align 8, !tbaa !4
  %98 = load ptr, ptr %5, align 8, !tbaa !58
  %99 = call i32 @avcodec_default_get_buffer2(ptr noundef %97, ptr noundef %98, i32 noundef 0)
  store i32 %99, ptr %6, align 4, !tbaa !41
  %100 = load i32, ptr %6, align 4, !tbaa !41
  %101 = icmp slt i32 %100, 0
  br i1 %101, label %102, label %106

102:                                              ; preds = %96
  %103 = load ptr, ptr %4, align 8, !tbaa !4
  call void (ptr, i32, ptr, ...) @av_log(ptr noundef %103, i32 noundef 16, ptr noundef @.str.18)
  %104 = load ptr, ptr %5, align 8, !tbaa !58
  call void @av_frame_unref(ptr noundef %104)
  %105 = load i32, ptr %6, align 4, !tbaa !41
  store i32 %105, ptr %3, align 4
  store i32 1, ptr %7, align 4
  br label %107

106:                                              ; preds = %96
  store i32 0, ptr %3, align 4
  store i32 1, ptr %7, align 4
  br label %107

107:                                              ; preds = %106, %102, %92
  call void @llvm.lifetime.end.p0(i64 4, ptr %6) #10
  %108 = load i32, ptr %3, align 4
  ret i32 %108
}