; Function Attrs: nounwind uwtable
define range(i32 -2147483648, 1) i32 @ff_encode_alloc_frame(ptr noundef %0, ptr noundef %1) local_unnamed_addr #0 {
  %3 = getelementptr inbounds nuw i8, ptr %0, i64 16
  %4 = load ptr, ptr %3, align 8, !tbaa !46
  %5 = getelementptr inbounds nuw i8, ptr %4, i64 16
  %6 = load i32, ptr %5, align 8, !tbaa !70
  switch i32 %6, label %43 [
    i32 0, label %7
    i32 1, label %29
  ]

7:                                                ; preds = %2
  %8 = getelementptr inbounds nuw i8, ptr %0, i64 136
  %9 = load i32, ptr %8, align 8, !tbaa !102
  %10 = getelementptr inbounds nuw i8, ptr %1, i64 116
  store i32 %9, ptr %10, align 4, !tbaa !143
  %11 = getelementptr inbounds nuw i8, ptr %1, i64 104
  %12 = load i32, ptr %11, align 8, !tbaa !144
  %13 = icmp slt i32 %12, 1
  br i1 %13, label %18, label %14

14:                                               ; preds = %7
  %15 = getelementptr inbounds nuw i8, ptr %1, i64 108
  %16 = load i32, ptr %15, align 4, !tbaa !145
  %17 = icmp slt i32 %16, 1
  br i1 %17, label %18, label %43

18:                                               ; preds = %14, %7
  %19 = getelementptr inbounds nuw i8, ptr %0, i64 112
  %20 = load i32, ptr %19, align 8, !tbaa !89
  %21 = getelementptr inbounds nuw i8, ptr %0, i64 120
  %22 = load i32, ptr %21, align 8, !tbaa !146
  %. = tail call i32 @llvm.smax.i32(i32 %20, i32 %22)
  store i32 %., ptr %11, align 8, !tbaa !144
  %23 = getelementptr inbounds nuw i8, ptr %0, i64 116
  %24 = load i32, ptr %23, align 4, !tbaa !90
  %25 = getelementptr inbounds nuw i8, ptr %0, i64 124
  %26 = load i32, ptr %25, align 4, !tbaa !147
  %27 = tail call i32 @llvm.smax.i32(i32 %24, i32 %26)
  %28 = getelementptr inbounds nuw i8, ptr %1, i64 108
  store i32 %27, ptr %28, align 4, !tbaa !145
  br label %43

29:                                               ; preds = %2
  %30 = getelementptr inbounds nuw i8, ptr %0, i64 344
  %31 = load i32, ptr %30, align 8, !tbaa !72
  %32 = getelementptr inbounds nuw i8, ptr %1, i64 180
  store i32 %31, ptr %32, align 4, !tbaa !148
  %33 = getelementptr inbounds nuw i8, ptr %0, i64 348
  %34 = load i32, ptr %33, align 4, !tbaa !118
  %35 = getelementptr inbounds nuw i8, ptr %1, i64 116
  store i32 %34, ptr %35, align 4, !tbaa !143
  %36 = getelementptr inbounds nuw i8, ptr %1, i64 388
  %37 = load i32, ptr %36, align 4, !tbaa !149
  %.not = icmp eq i32 %37, 0
  br i1 %.not, label %38, label %43

38:                                               ; preds = %29
  %39 = getelementptr inbounds nuw i8, ptr %1, i64 384
  %40 = getelementptr inbounds nuw i8, ptr %0, i64 352
  %41 = tail call i32 @av_channel_layout_copy(ptr noundef nonnull %39, ptr noundef nonnull %40) #8
  %42 = icmp slt i32 %41, 0
  br i1 %42, label %47, label %43

43:                                               ; preds = %29, %38, %14, %18, %2
  %44 = tail call i32 @avcodec_default_get_buffer2(ptr noundef nonnull %0, ptr noundef %1, i32 noundef 0) #8
  %45 = icmp slt i32 %44, 0
  br i1 %45, label %46, label %47

46:                                               ; preds = %43
  tail call void (ptr, i32, ptr, ...) @av_log(ptr noundef nonnull %0, i32 noundef 16, ptr noundef nonnull @.str.18) #8
  tail call void @av_frame_unref(ptr noundef %1) #8
  br label %47

47:                                               ; preds = %43, %38, %46
  %.0 = phi i32 [ %44, %46 ], [ %41, %38 ], [ 0, %43 ]
  ret i32 %.0
}